target datalayout = "e-m:e-p270:32:32-p271:32:32-p272:64:64-i64:64-i128:128-f80:128-n8:16:32:64-S128"
target triple = "x86_64-pc-linux-gnu"

%struct.prte_state_base_module_1_0_0_t = type { ptr, ptr, ptr, ptr, ptr, ptr, ptr, ptr, ptr, ptr }
%struct.pmix_class_t = type { ptr, ptr, ptr, ptr, i32, i32, ptr, ptr, i64 }
%struct.pmix_list_t = type { %struct.pmix_object_t, %struct.pmix_list_item_t, i64 }
%struct.pmix_object_t = type { %union.pthread_mutex_t, ptr, i32, %struct.pmix_tma }
%union.pthread_mutex_t = type { %struct.__pthread_mutex_s }
%struct.__pthread_mutex_s = type { i32, i32, i32, i32, i32, i16, i16, %struct.__pthread_internal_list }
%struct.__pthread_internal_list = type { ptr, ptr }
%struct.pmix_tma = type { ptr, ptr, ptr, ptr, ptr, ptr, ptr, ptr }
%struct.pmix_list_item_t = type { %struct.pmix_object_t, ptr, ptr, i32 }
%struct.pmix_mca_base_framework_t = type { ptr, ptr, ptr, ptr, ptr, ptr, i32, i32, ptr, ptr, i32, i32, %struct.pmix_list_t, %struct.pmix_list_t }
%struct.pmix_output_desc_t = type { i8, i8, i32, i8, i32, ptr, ptr, i32, ptr, i32, i8, i8, i8, i8, ptr, i32, i32 }
%struct.prte_process_info_t = type { %struct.pmix_proc, %struct.pmix_proc, ptr, %struct.pmix_proc, i32, i32, i32, ptr, ptr, i32, i8, ptr, i16, ptr, ptr, i8, ptr, i8 }
%struct.pmix_proc = type { [256 x i8], i32 }
%struct.timeval = type { i64, i64 }
%struct.prte_state_caddy_t = type { %struct.pmix_object_t, %struct.event, ptr, i32, %struct.pmix_proc, i32 }
%struct.event = type { %struct.event_callback, %union.anon.0, i32, ptr, %union.anon.2, i16, i16, %struct.timeval }
%struct.event_callback = type { %struct.anon, i16, i8, i8, %union.anon, ptr }
%struct.anon = type { ptr, ptr }
%union.anon = type { ptr }
%union.anon.0 = type { %struct.anon.1 }
%struct.anon.1 = type { ptr, ptr }
%union.anon.2 = type { %struct.anon.3 }
%struct.anon.3 = type { %struct.anon.4, %struct.timeval }
%struct.anon.4 = type { ptr, ptr }
%struct.prte_job_t = type { %struct.pmix_list_item_t, i32, ptr, ptr, [256 x i8], ptr, i32, i32, ptr, ptr, i32, i32, i32, i32, ptr, ptr, ptr, i32, i32, i32, i32, i32, i32, i32, %struct.pmix_proc, i32, i16, %struct.pmix_list_t, %struct.pmix_data_buffer, %struct.pmix_list_t, [256 x i8], i32, ptr, %struct.pmix_cli_result_t }
%struct.pmix_data_buffer = type { ptr, ptr, ptr, i64, i64 }
%struct.pmix_cli_result_t = type { %struct.pmix_object_t, %struct.pmix_list_t, ptr }

@prte_state = external global %struct.prte_state_base_module_1_0_0_t, align 8
@.str.1 = private unnamed_addr constant [12 x i8] c"state_dvm.c\00", align 1
@prte_state_base_framework = external global %struct.pmix_mca_base_framework_t, align 8
@pmix_output_info = external global [0 x %struct.pmix_output_desc_t], align 8
@.str.2 = private unnamed_addr constant [42 x i8] c"%s [%f] ACTIVATE JOB %s STATE %s AT %s:%d\00", align 1
@prte_process_info = external global %struct.prte_process_info_t, align 8
@.str.3 = private unnamed_addr constant [5 x i8] c"NULL\00", align 1
@.str.4 = private unnamed_addr constant [21 x i8] c"pthread_mutex_lock()\00", align 1

; Function Attrs: inlinehint nounwind uwtable
define internal void @pmix_tma_free(ptr noundef %0, ptr noundef %1) #3 {
  %3 = alloca ptr, align 8
  %4 = alloca ptr, align 8
  store ptr %0, ptr %3, align 8, !tbaa !36
  store ptr %1, ptr %4, align 8, !tbaa !19
  %5 = load ptr, ptr %3, align 8, !tbaa !36
  %6 = icmp ne ptr null, %5
  br i1 %6, label %7, label %13

7:                                                ; preds = %2
  %8 = load ptr, ptr %3, align 8, !tbaa !36
  %9 = getelementptr inbounds nuw %struct.pmix_tma, ptr %8, i32 0, i32 5
  %10 = load ptr, ptr %9, align 8, !tbaa !195
  %11 = load ptr, ptr %3, align 8, !tbaa !36
  %12 = load ptr, ptr %4, align 8, !tbaa !19
  call void %10(ptr noundef %11, ptr noundef %12)
  br label %15

13:                                               ; preds = %2
  %14 = load ptr, ptr %4, align 8, !tbaa !19
  call void @free(ptr noundef %14) #13
  br label %15

15:                                               ; preds = %13, %7
  ret void
}

; Function Attrs: inlinehint nounwind uwtable
define internal void @pmix_obj_run_destructors(ptr noundef %0) #3 {
  %2 = alloca ptr, align 8
  %3 = alloca ptr, align 8
  store ptr %0, ptr %2, align 8, !tbaa !31
  call void @llvm.lifetime.start.p0(i64 8, ptr %3) #13
  %4 = load ptr, ptr %2, align 8, !tbaa !31
  %5 = getelementptr inbounds nuw %struct.pmix_object_t, ptr %4, i32 0, i32 1
  %6 = load ptr, ptr %5, align 8, !tbaa !13
  %7 = getelementptr inbounds nuw %struct.pmix_class_t, ptr %6, i32 0, i32 7
  %8 = load ptr, ptr %7, align 8, !tbaa !193
  store ptr %8, ptr %3, align 8, !tbaa !19
  br label %9

9:                                                ; preds = %13, %1
  %10 = load ptr, ptr %3, align 8, !tbaa !19
  %11 = load ptr, ptr %10, align 8, !tbaa !19
  %12 = icmp ne ptr null, %11
  br i1 %12, label %13, label %19

13:                                               ; preds = %9
  %14 = load ptr, ptr %3, align 8, !tbaa !19
  %15 = load ptr, ptr %14, align 8, !tbaa !19
  %16 = load ptr, ptr %2, align 8, !tbaa !31
  call void %15(ptr noundef %16)
  %17 = load ptr, ptr %3, align 8, !tbaa !19
  %18 = getelementptr inbounds nuw ptr, ptr %17, i32 1
  store ptr %18, ptr %3, align 8, !tbaa !19
  br label %9, !llvm.loop !194

19:                                               ; preds = %9
  call void @llvm.lifetime.end.p0(i64 8, ptr %3) #13
  ret void
}

; Function Attrs: alwaysinline nounwind uwtable
define internal i32 @pmix_obj_update(ptr noundef %0, i32 noundef %1) #6 {
  %3 = alloca ptr, align 8
  %4 = alloca i32, align 4
  %5 = alloca i32, align 4
  store ptr %0, ptr %3, align 8, !tbaa !31
  store i32 %1, ptr %4, align 4, !tbaa !3
  call void @llvm.lifetime.start.p0(i64 4, ptr %5) #13
  %6 = load ptr, ptr %3, align 8, !tbaa !31
  %7 = getelementptr inbounds nuw %struct.pmix_object_t, ptr %6, i32 0, i32 0
  %8 = call i32 @pthread_mutex_lock(ptr noundef %7) #13
  store i32 %8, ptr %5, align 4, !tbaa !3
  %9 = load i32, ptr %5, align 4, !tbaa !3
  %10 = icmp eq i32 %9, 35
  br i1 %10, label %11, label %14

11:                                               ; preds = %2
  %12 = load i32, ptr %5, align 4, !tbaa !3
  %13 = call ptr @__errno_location() #15
  store i32 %12, ptr %13, align 4, !tbaa !3
  call void @perror(ptr noundef @.str.4)
  call void @abort() #16
  unreachable

14:                                               ; preds = %2
  %15 = load i32, ptr %4, align 4, !tbaa !3
  %16 = load ptr, ptr %3, align 8, !tbaa !31
  %17 = getelementptr inbounds nuw %struct.pmix_object_t, ptr %16, i32 0, i32 2
  %18 = load i32, ptr %17, align 8, !tbaa !16
  %19 = add nsw i32 %18, %15
  store i32 %19, ptr %17, align 8, !tbaa !16
  store i32 %19, ptr %5, align 4, !tbaa !3
  %20 = load ptr, ptr %3, align 8, !tbaa !31
  %21 = getelementptr inbounds nuw %struct.pmix_object_t, ptr %20, i32 0, i32 0
  %22 = call i32 @pthread_mutex_unlock(ptr noundef %21) #13
  %23 = load i32, ptr %5, align 4, !tbaa !3
  call void @llvm.lifetime.end.p0(i64 4, ptr %5) #13
  ret i32 %23
}

; Function Attrs: inlinehint nounwind uwtable
define internal void @pmix_atomic_rmb() #3 {
  fence acquire
  ret void
}

; Function Attrs: nounwind uwtable
define internal void @init_complete(i32 noundef %0, i16 noundef signext %1, ptr noundef %2) #0 {
  %4 = alloca i32, align 4
  %5 = alloca i16, align 2
  %6 = alloca ptr, align 8
  %7 = alloca ptr, align 8
  %8 = alloca ptr, align 8
  %9 = alloca double, align 8
  %10 = alloca %struct.timeval, align 8
  %11 = alloca ptr, align 8
  store i32 %0, ptr %4, align 4, !tbaa !3
  store i16 %1, ptr %5, align 2, !tbaa !48
  store ptr %2, ptr %6, align 8, !tbaa !19
  call void @llvm.lifetime.start.p0(i64 8, ptr %7) #13
  %12 = load ptr, ptr %6, align 8, !tbaa !19
  store ptr %12, ptr %7, align 8, !tbaa !19
  call void @pmix_atomic_rmb()
  br label %13

13:                                               ; preds = %3
  call void @llvm.lifetime.start.p0(i64 8, ptr %8) #13
  %14 = load ptr, ptr %7, align 8, !tbaa !19
  %15 = getelementptr inbounds nuw %struct.prte_state_caddy_t, ptr %14, i32 0, i32 2
  %16 = load ptr, ptr %15, align 8, !tbaa !52
  store ptr %16, ptr %8, align 8, !tbaa !19
  %17 = load i32, ptr getelementptr inbounds nuw (%struct.pmix_mca_base_framework_t, ptr @prte_state_base_framework, i32 0, i32 10), align 8, !tbaa !62
  %18 = icmp sgt i32 %17, 0
  br i1 %18, label %19, label %61

19:                                               ; preds = %13
  call void @llvm.lifetime.start.p0(i64 8, ptr %9) #13
  store double 0.000000e+00, ptr %9, align 8, !tbaa !63
  br label %20

20:                                               ; preds = %19
  call void @llvm.lifetime.start.p0(i64 16, ptr %10) #13
  %21 = call i32 @gettimeofday(ptr noundef %10, ptr noundef null) #13
  %22 = getelementptr inbounds nuw %struct.timeval, ptr %10, i32 0, i32 0
  %23 = load i64, ptr %22, align 8, !tbaa !65
  %24 = sitofp i64 %23 to double
  store double %24, ptr %9, align 8, !tbaa !63
  %25 = getelementptr inbounds nuw %struct.timeval, ptr %10, i32 0, i32 1
  %26 = load i64, ptr %25, align 8, !tbaa !66
  %27 = sitofp i64 %26 to double
  %28 = fdiv double %27, 1.000000e+06
  %29 = load double, ptr %9, align 8, !tbaa !63
  %30 = fadd double %29, %28
  store double %30, ptr %9, align 8, !tbaa !63
  call void @llvm.lifetime.end.p0(i64 16, ptr %10) #13
  br label %31

31:                                               ; preds = %20
  br label %32

32:                                               ; preds = %31
  %33 = load i32, ptr getelementptr inbounds nuw (%struct.pmix_mca_base_framework_t, ptr @prte_state_base_framework, i32 0, i32 11), align 4, !tbaa !22
  %34 = icmp sge i32 %33, 0
  br i1 %34, label %35, label %60

35:                                               ; preds = %32
  %36 = load i32, ptr getelementptr inbounds nuw (%struct.pmix_mca_base_framework_t, ptr @prte_state_base_framework, i32 0, i32 11), align 4, !tbaa !22
  %37 = icmp slt i32 %36, 64
  br i1 %37, label %38, label %60

38:                                               ; preds = %35
  %39 = load i32, ptr getelementptr inbounds nuw (%struct.pmix_mca_base_framework_t, ptr @prte_state_base_framework, i32 0, i32 11), align 4, !tbaa !22
  %40 = sext i32 %39 to i64
  %41 = getelementptr inbounds [0 x %struct.pmix_output_desc_t], ptr @pmix_output_info, i64 0, i64 %40
  %42 = getelementptr inbounds nuw %struct.pmix_output_desc_t, ptr %41, i32 0, i32 2
  %43 = load i32, ptr %42, align 4, !tbaa !67
  %44 = icmp sge i32 %43, 1
  br i1 %44, label %45, label %60

45:                                               ; preds = %38
  %46 = load i32, ptr getelementptr inbounds nuw (%struct.pmix_mca_base_framework_t, ptr @prte_state_base_framework, i32 0, i32 11), align 4, !tbaa !22
  %47 = call ptr @prte_util_print_name_args(ptr noundef @prte_process_info)
  %48 = load double, ptr %9, align 8, !tbaa !63
  %49 = load ptr, ptr %8, align 8, !tbaa !19
  %50 = icmp eq ptr null, %49
  br i1 %50, label %51, label %52

51:                                               ; preds = %45
  br label %57

52:                                               ; preds = %45
  %53 = load ptr, ptr %8, align 8, !tbaa !19
  %54 = getelementptr inbounds nuw %struct.prte_job_t, ptr %53, i32 0, i32 4
  %55 = getelementptr inbounds [256 x i8], ptr %54, i64 0, i64 0
  %56 = call ptr @prte_util_print_jobids(ptr noundef %55)
  br label %57

57:                                               ; preds = %52, %51
  %58 = phi ptr [ @.str.3, %51 ], [ %56, %52 ]
  %59 = call ptr @prte_job_state_to_str(i32 noundef 3)
  call void (i32, ptr, ...) @pmix_output(i32 noundef %46, ptr noundef @.str.2, ptr noundef %47, double noundef %48, ptr noundef %58, ptr noundef %59, ptr noundef @.str.1, i32 noundef 255)
  br label %60

60:                                               ; preds = %57, %38, %35, %32
  call void @llvm.lifetime.end.p0(i64 8, ptr %9) #13
  br label %61

61:                                               ; preds = %60, %13
  %62 = load ptr, ptr getelementptr inbounds nuw (%struct.prte_state_base_module_1_0_0_t, ptr @prte_state, i32 0, i32 2), align 8, !tbaa !70
  %63 = load ptr, ptr %8, align 8, !tbaa !19
  call void %62(ptr noundef %63, i32 noundef 3)
  call void @llvm.lifetime.end.p0(i64 8, ptr %8) #13
  br label %64

64:                                               ; preds = %61
  br label %65

65:                                               ; preds = %64
  br label %66

66:                                               ; preds = %65
  call void @llvm.lifetime.start.p0(i64 8, ptr %11) #13
  %67 = load ptr, ptr %7, align 8, !tbaa !19
  store ptr %67, ptr %11, align 8, !tbaa !31
  %68 = load ptr, ptr %11, align 8, !tbaa !31
  %69 = call i32 @pmix_obj_update(ptr noundef %68, i32 noundef -1)
  %70 = icmp eq i32 0, %69
  br i1 %70, label %71, label %85

71:                                               ; preds = %66
  %72 = load ptr, ptr %11, align 8, !tbaa !31
  call void @pmix_obj_run_destructors(ptr noundef %72)
  %73 = load ptr, ptr %11, align 8, !tbaa !31
  %74 = getelementptr inbounds nuw %struct.pmix_object_t, ptr %73, i32 0, i32 3
  %75 = getelementptr inbounds nuw %struct.pmix_tma, ptr %74, i32 0, i32 5
  %76 = load ptr, ptr %75, align 8, !tbaa !33
  %77 = icmp ne ptr null, %76
  br i1 %77, label %78, label %82

78:                                               ; preds = %71
  %79 = load ptr, ptr %11, align 8, !tbaa !31
  %80 = getelementptr inbounds nuw %struct.pmix_object_t, ptr %79, i32 0, i32 3
  %81 = load ptr, ptr %7, align 8, !tbaa !19
  call void @pmix_tma_free(ptr noundef %80, ptr noundef %81)
  br label %84

82:                                               ; preds = %71
  %83 = load ptr, ptr %7, align 8, !tbaa !19
  call void @free(ptr noundef %83) #13
  br label %84

84:                                               ; preds = %82, %78
  store ptr null, ptr %7, align 8, !tbaa !19
  br label %85

85:                                               ; preds = %84, %66
  call void @llvm.lifetime.end.p0(i64 8, ptr %11) #13
  br label %86

86:                                               ; preds = %85
  br label %87

87:                                               ; preds = %86
  call void @llvm.lifetime.end.p0(i64 8, ptr %7) #13
  ret void
}