; Function Attrs: nounwind uwtable
define internal void @init_complete(i32 %0, i16 signext %1, ptr noundef %2) #0 {
  %4 = alloca %struct.timeval, align 8
  fence acquire
  %5 = getelementptr inbounds nuw i8, ptr %2, i64 248
  %6 = load ptr, ptr %5, align 8, !tbaa !43
  %7 = load i32, ptr getelementptr inbounds nuw (i8, ptr @prte_state_base_framework, i64 72), align 8, !tbaa !54
  %8 = icmp sgt i32 %7, 0
  br i1 %8, label %9, label %33

9:                                                ; preds = %3
  call void @llvm.lifetime.start.p0(i64 16, ptr nonnull %4) #16
  %10 = call i32 @gettimeofday(ptr noundef nonnull %4, ptr noundef null) #16
  %11 = load i64, ptr %4, align 8, !tbaa !55
  %12 = sitofp i64 %11 to double
  %13 = getelementptr inbounds nuw i8, ptr %4, i64 8
  %14 = load i64, ptr %13, align 8, !tbaa !56
  %15 = sitofp i64 %14 to double
  %16 = fdiv double %15, 1.000000e+06
  %17 = fadd double %16, %12
  call void @llvm.lifetime.end.p0(i64 16, ptr nonnull %4) #16
  %18 = load i32, ptr getelementptr inbounds nuw (i8, ptr @prte_state_base_framework, i64 76), align 4, !tbaa !24
  %or.cond = icmp ult i32 %18, 64
  br i1 %or.cond, label %19, label %33

19:                                               ; preds = %9
  %20 = zext nneg i32 %18 to i64
  %21 = getelementptr inbounds nuw [0 x %struct.pmix_output_desc_t], ptr @pmix_output_info, i64 0, i64 %20, i32 2
  %22 = load i32, ptr %21, align 4, !tbaa !57
  %23 = icmp sgt i32 %22, 0
  br i1 %23, label %24, label %33

24:                                               ; preds = %19
  %25 = tail call ptr @prte_util_print_name_args(ptr noundef nonnull @prte_process_info) #16
  %26 = icmp eq ptr %6, null
  br i1 %26, label %30, label %27

27:                                               ; preds = %24
  %28 = getelementptr inbounds nuw i8, ptr %6, i64 168
  %29 = tail call ptr @prte_util_print_jobids(ptr noundef nonnull %28) #16
  br label %30

30:                                               ; preds = %24, %27
  %31 = phi ptr [ %29, %27 ], [ @.str.3, %24 ]
  %32 = tail call ptr @prte_job_state_to_str(i32 noundef 3) #16
  tail call void (i32, ptr, ...) @pmix_output(i32 noundef %18, ptr noundef nonnull @.str.2, ptr noundef %25, double noundef %17, ptr noundef %31, ptr noundef %32, ptr noundef nonnull @.str.1, i32 noundef 255) #16
  br label %33

33:                                               ; preds = %9, %19, %30, %3
  %34 = load ptr, ptr getelementptr inbounds nuw (i8, ptr @prte_state, i64 16), align 8, !tbaa !60
  tail call void %34(ptr noundef %6, i32 noundef 3) #16
  %35 = tail call i32 @pthread_mutex_lock(ptr noundef nonnull %2) #16
  %36 = icmp eq i32 %35, 35
  br i1 %36, label %37, label %pmix_obj_update.exit

37:                                               ; preds = %33
  %38 = tail call ptr @__errno_location() #17
  store i32 35, ptr %38, align 4, !tbaa !3
  tail call void @perror(ptr noundef nonnull @.str.4) #18
  tail call void @abort() #19
  unreachable

pmix_obj_update.exit:                             ; preds = %33
  %39 = getelementptr inbounds nuw i8, ptr %2, i64 48
  %40 = load i32, ptr %39, align 8, !tbaa !16
  %41 = add nsw i32 %40, -1
  store i32 %41, ptr %39, align 8, !tbaa !16
  %42 = tail call i32 @pthread_mutex_unlock(ptr noundef nonnull %2) #16
  %43 = icmp eq i32 %41, 0
  br i1 %43, label %44, label %58

44:                                               ; preds = %pmix_obj_update.exit
  %45 = getelementptr inbounds nuw i8, ptr %2, i64 40
  %46 = load ptr, ptr %45, align 8, !tbaa !13
  %47 = getelementptr inbounds nuw i8, ptr %46, i64 48
  %48 = load ptr, ptr %47, align 8, !tbaa !36
  %49 = load ptr, ptr %48, align 8, !tbaa !18
  %.not6.i = icmp eq ptr %49, null
  br i1 %.not6.i, label %pmix_obj_run_destructors.exit, label %.lr.ph.i

.lr.ph.i:                                         ; preds = %44, %.lr.ph.i
  %50 = phi ptr [ %52, %.lr.ph.i ], [ %49, %44 ]
  %.07.i = phi ptr [ %51, %.lr.ph.i ], [ %48, %44 ]
  tail call void %50(ptr noundef nonnull %2) #16
  %51 = getelementptr inbounds nuw i8, ptr %.07.i, i64 8
  %52 = load ptr, ptr %51, align 8, !tbaa !18
  %.not.i = icmp eq ptr %52, null
  br i1 %.not.i, label %pmix_obj_run_destructors.exit, label %.lr.ph.i, !llvm.loop !37

pmix_obj_run_destructors.exit:                    ; preds = %.lr.ph.i, %44
  %53 = getelementptr inbounds nuw i8, ptr %2, i64 96
  %54 = load ptr, ptr %53, align 8, !tbaa !38
  %.not = icmp eq ptr %54, null
  br i1 %.not, label %57, label %55

55:                                               ; preds = %pmix_obj_run_destructors.exit
  %56 = getelementptr inbounds nuw i8, ptr %2, i64 56
  tail call void %54(ptr noundef nonnull %56, ptr noundef nonnull %2) #16
  br label %58

57:                                               ; preds = %pmix_obj_run_destructors.exit
  tail call void @free(ptr noundef nonnull %2) #16
  br label %58

58:                                               ; preds = %55, %57, %pmix_obj_update.exit
  ret void
}